cnumpy.core.multiarray
_reconstruct
p0
(cnumpy
ndarray
p1
(I0
tp2
S'b'
p3
tp4
Rp5
(I1
(I14
I10
tp6
cnumpy
dtype
p7
(S'O8'
p8
I0
I1
tp9
Rp10
(I3
S'|'
p11
NNNI-1
I-1
I63
tp12
bI01
(lp13
I4
aI6
aI10
aI7
aI9
aI5
aI8
aI3
aI1
aI2
aI3
aI2
aI1
aI8
aI7
aI10
aI5
aI4
aI9
aI6
aI6
aI4
aI8
aI7
aI5
aI9
aI10
aI3
aI1
aI2
aI5
aI7
aI4
aI2
aI10
aI9
aI1
aI8
aI6
aI3
aI6
aI3
aI9
aI5
aI4
aI10
aI1
aI2
aI8
aI7
aI6
aI1
aI3
aI7
aI8
aI5
aI4
aI10
aI2
aI9
aI7
aI4
aI9
aI1
aI3
aI5
aI6
aI8
aI10
aI2
aI3
aI1
aI2
aI10
aI6
aI5
aI7
aI4
aI8
aI9
aI1
aI9
aI5
aI8
aI4
aI3
aI6
aI2
aI7
aI10
aI7
aI3
aI5
aI6
aI8
aI4
aI2
aI10
aI1
aI9
aI2
aI4
aI5
aI6
aI7
aI8
aI3
aI9
aI1
aI10
aI2
aI5
aI4
aI7
aI6
aI9
aI3
aI8
aI1
aI10
aI2
aI4
aI1
aI9
aI8
aI7
aI3
aI6
aI5
aI10
aI3
aI4
aI5
aI8
aI7
aI2
aI6
aI10
aI1
aI9
atp14
b.