cnumpy.core.multiarray
_reconstruct
p0
(cnumpy
ndarray
p1
(I0
tp2
S'b'
p3
tp4
Rp5
(I1
(I13
I10
tp6
cnumpy
dtype
p7
(S'O8'
p8
I0
I1
tp9
Rp10
(I3
S'|'
p11
NNNI-1
I-1
I63
tp12
bI01
(lp13
F0.05555555555555555
aF0.09259259259259259
aF0.09259259259259259
aF0.16666666666666666
aF0.037037037037037035
aF0.07407407407407407
aF0.16666666666666666
aF0.12962962962962962
aF0.14814814814814814
aF0.037037037037037035
aI10
aI10
aI10
aI0
aI0
aI0
aI0
aI0
aI10
aI10
aF0.2413793103448276
aF0.10344827586206896
aF0.034482758620689655
aF0.1724137931034483
aF0.10344827586206896
aF0.034482758620689655
aF0.034482758620689655
aF0.1724137931034483
aF0.034482758620689655
aF0.06896551724137931
aF0.10909090909090909
aF0.09090909090909091
aF0.09090909090909091
aF0.09090909090909091
aF0.10909090909090909
aF0.09090909090909091
aF0.09090909090909091
aF0.14545454545454545
aF0.09090909090909091
aF0.09090909090909091
aI10
aI10
aI0
aI0
aI10
aI10
aI0
aI0
aI10
aI0
aI10
aI0
aI0
aI0
aI10
aI0
aI0
aI10
aI10
aI10
aI0
aI0
aI0
aI0
aI10
aI10
aI10
aI10
aI10
aI0
aI0
aI0
aI0
aI0
aI10
aI10
aI10
aI10
aI10
aI0
aF0.03571428571428571
aF0.16071428571428573
aF0.125
aF0.125
aF0.08928571428571429
aF0.03571428571428571
aF0.125
aF0.14285714285714285
aF0.10714285714285714
aF0.05357142857142857
aI10
aI10
aI10
aI0
aI0
aI0
aI10
aI0
aI10
aI0
aF0.08620689655172414
aF0.08620689655172414
aF0.13793103448275862
aF0.017241379310344827
aF0.13793103448275862
aF0.06896551724137931
aF0.08620689655172414
aF0.13793103448275862
aF0.13793103448275862
aF0.10344827586206896
aF0.10638297872340426
aF0.2127659574468085
aF0.2127659574468085
aF0.0851063829787234
aF0.0425531914893617
aF0.06382978723404255
aF0.0851063829787234
aF0.0425531914893617
aF0.10638297872340426
aF0.0425531914893617
aF0.14285714285714285
aF0.12857142857142856
aF0.07142857142857142
aF0.05714285714285714
aF0.08571428571428572
aF0.11428571428571428
aF0.11428571428571428
aF0.11428571428571428
aF0.12857142857142856
aF0.04285714285714286
atp14
b.