cnumpy.core.multiarray
_reconstruct
p0
(cnumpy
ndarray
p1
(I0
tp2
S'b'
p3
tp4
Rp5
(I1
(I11
I10
tp6
cnumpy
dtype
p7
(S'O8'
p8
I0
I1
tp9
Rp10
(I3
S'|'
p11
NNNI-1
I-1
I63
tp12
bI01
(lp13
F0.15625
aF0.15625
aF0.15625
aF0.015625
aF0.015625
aF0.015625
aF0.15625
aF0.15625
aF0.15625
aF0.015625
aF0.1320754716981132
aF0.1509433962264151
aF0.03773584905660377
aF0.018867924528301886
aF0.11320754716981132
aF0.1320754716981132
aF0.18867924528301888
aF0.07547169811320754
aF0.1320754716981132
aF0.018867924528301886
aF0.08823529411764706
aF0.20588235294117646
aF0.14705882352941177
aF0.029411764705882353
aF0.029411764705882353
aF0.058823529411764705
aF0.14705882352941177
aF0.029411764705882353
aF0.20588235294117646
aF0.058823529411764705
aF0.078125
aF0.109375
aF0.09375
aF0.09375
aF0.125
aF0.0625
aF0.078125
aF0.125
aF0.09375
aF0.140625
aF0.11764705882352941
aF0.023529411764705882
aF0.08235294117647059
aF0.11764705882352941
aF0.09411764705882353
aF0.11764705882352941
aF0.10588235294117647
aF0.11764705882352941
aF0.10588235294117647
aF0.11764705882352941
aF0.11538461538461539
aF0.07692307692307693
aF0.08974358974358974
aF0.10256410256410256
aF0.10256410256410256
aF0.0641025641025641
aF0.0641025641025641
aF0.1282051282051282
aF0.1282051282051282
aF0.1282051282051282
aF0.125
aF0.1111111111111111
aF0.09722222222222222
aF0.1111111111111111
aF0.06944444444444445
aF0.09722222222222222
aF0.1111111111111111
aF0.06944444444444445
aF0.08333333333333333
aF0.125
aI10
aI10
aI10
aI0
aI0
aI0
aI10
aI0
aI10
aI0
aF0.05555555555555555
aF0.16666666666666666
aF0.2222222222222222
aF0.05555555555555555
aF0.05555555555555555
aF0.1111111111111111
aF0.05555555555555555
aF0.05555555555555555
aF0.05555555555555555
aF0.16666666666666666
aF0.12048192771084337
aF0.08433734939759036
aF0.060240963855421686
aF0.060240963855421686
aF0.12048192771084337
aF0.0963855421686747
aF0.12048192771084337
aF0.12048192771084337
aF0.12048192771084337
aF0.0963855421686747
aI0
aI0
aI0
aI0
aI10
aI10
aI10
aI0
aI10
aI10
atp14
b.